target datalayout = "e-m:e-p270:32:32-p271:32:32-p272:64:64-i64:64-i128:128-f80:128-n8:16:32:64-S128"
target triple = "x86_64-pc-linux-gnu"

%struct.NVGglyphPosition = type { ptr, float, float, float }

; Function Attrs: mustprogress nounwind uwtable
define linkonce_odr dso_local noundef float @_ZSt3absf(float noundef %0) #5 comdat {
  %2 = alloca float, align 4
  store float %0, ptr %2, align 4
  %3 = load float, ptr %2, align 4
  %4 = call float @llvm.fabs.f32(float %3)
  ret float %4
}

; Function Attrs: mustprogress uwtable
define hidden noundef i32 @_ZN7nanogui7TextBox24position_to_cursor_indexEffPK16NVGglyphPositioni(ptr noundef nonnull align 8 dereferenceable(440) %0, float noundef %1, float noundef %2, ptr noundef %3, i32 noundef %4) #4 align 2 {
  %6 = alloca ptr, align 8
  %7 = alloca float, align 4
  %8 = alloca float, align 4
  %9 = alloca ptr, align 8
  %10 = alloca i32, align 4
  %11 = alloca i32, align 4
  %12 = alloca float, align 4
  %13 = alloca i32, align 4
  store ptr %0, ptr %6, align 8
  store float %1, ptr %7, align 4
  store float %2, ptr %8, align 4
  store ptr %3, ptr %9, align 8
  store i32 %4, ptr %10, align 4
  store i32 0, ptr %11, align 4
  %14 = load ptr, ptr %9, align 8
  %15 = load i32, ptr %11, align 4
  %16 = sext i32 %15 to i64
  %17 = getelementptr inbounds %struct.NVGglyphPosition, ptr %14, i64 %16
  %18 = getelementptr inbounds %struct.NVGglyphPosition, ptr %17, i32 0, i32 1
  %19 = load float, ptr %18, align 8
  store float %19, ptr %12, align 4
  store i32 1, ptr %13, align 4
  br label %20

20:                                               ; preds = %48, %5
  %21 = load i32, ptr %13, align 4
  %22 = load i32, ptr %10, align 4
  %23 = icmp slt i32 %21, %22
  br i1 %23, label %24, label %51

24:                                               ; preds = %20
  %25 = load float, ptr %12, align 4
  %26 = load float, ptr %7, align 4
  %27 = fsub float %25, %26
  %28 = call noundef float @_ZSt3absf(float noundef %27)
  %29 = load ptr, ptr %9, align 8
  %30 = load i32, ptr %13, align 4
  %31 = sext i32 %30 to i64
  %32 = getelementptr inbounds %struct.NVGglyphPosition, ptr %29, i64 %31
  %33 = getelementptr inbounds %struct.NVGglyphPosition, ptr %32, i32 0, i32 1
  %34 = load float, ptr %33, align 8
  %35 = load float, ptr %7, align 4
  %36 = fsub float %34, %35
  %37 = call noundef float @_ZSt3absf(float noundef %36)
  %38 = fcmp ogt float %28, %37
  br i1 %38, label %39, label %47

39:                                               ; preds = %24
  %40 = load i32, ptr %13, align 4
  store i32 %40, ptr %11, align 4
  %41 = load ptr, ptr %9, align 8
  %42 = load i32, ptr %11, align 4
  %43 = sext i32 %42 to i64
  %44 = getelementptr inbounds %struct.NVGglyphPosition, ptr %41, i64 %43
  %45 = getelementptr inbounds %struct.NVGglyphPosition, ptr %44, i32 0, i32 1
  %46 = load float, ptr %45, align 8
  store float %46, ptr %12, align 4
  br label %47

47:                                               ; preds = %39, %24
  br label %48

48:                                               ; preds = %47
  %49 = load i32, ptr %13, align 4
  %50 = add nsw i32 %49, 1
  store i32 %50, ptr %13, align 4
  br label %20, !llvm.loop !5

51:                                               ; preds = %20
  %52 = load float, ptr %12, align 4
  %53 = load float, ptr %7, align 4
  %54 = fsub float %52, %53
  %55 = call noundef float @_ZSt3absf(float noundef %54)
  %56 = load float, ptr %8, align 4
  %57 = load float, ptr %7, align 4
  %58 = fsub float %56, %57
  %59 = call noundef float @_ZSt3absf(float noundef %58)
  %60 = fcmp ogt float %55, %59
  br i1 %60, label %61, label %63

61:                                               ; preds = %51
  %62 = load i32, ptr %10, align 4
  store i32 %62, ptr %11, align 4
  br label %63

63:                                               ; preds = %61, %51
  %64 = load i32, ptr %11, align 4
  ret i32 %64
}