; Function Attrs: mustprogress nofree norecurse nosync nounwind willreturn memory(argmem: read) uwtable
define hidden noundef i32 @_ZN7nanogui7TextBox24position_to_cursor_indexEffPK16NVGglyphPositioni(ptr nocapture noundef nonnull readnone align 8 dereferenceable(440) %0, float noundef %1, float noundef %2, ptr nocapture noundef readonly %3, i32 noundef %4) local_unnamed_addr #8 align 2 {
  %6 = getelementptr inbounds i8, ptr %3, i64 8
  %7 = load float, ptr %6, align 8
  %8 = icmp sgt i32 %4, 1
  br i1 %8, label %.lr.ph.preheader, label %._crit_edge

.lr.ph.preheader:                                 ; preds = %5
  %wide.trip.count = zext nneg i32 %4 to i64
  br label %.lr.ph

.lr.ph:                                           ; preds = %.lr.ph.preheader, %.lr.ph
  %indvars.iv = phi i64 [ 1, %.lr.ph.preheader ], [ %indvars.iv.next, %.lr.ph ]
  %.01823 = phi float [ %7, %.lr.ph.preheader ], [ %.1, %.lr.ph ]
  %.01922 = phi i32 [ 0, %.lr.ph.preheader ], [ %.120, %.lr.ph ]
  %9 = fsub float %.01823, %1
  %10 = tail call noundef float @llvm.fabs.f32(float %9)
  %11 = getelementptr inbounds %struct.NVGglyphPosition, ptr %3, i64 %indvars.iv, i32 1
  %12 = load float, ptr %11, align 8
  %13 = fsub float %12, %1
  %14 = tail call noundef float @llvm.fabs.f32(float %13)
  %15 = fcmp ogt float %10, %14
  %16 = trunc i64 %indvars.iv to i32
  %.120 = select i1 %15, i32 %16, i32 %.01922
  %.1 = select i1 %15, float %12, float %.01823
  %indvars.iv.next = add nuw nsw i64 %indvars.iv, 1
  %exitcond.not = icmp eq i64 %indvars.iv.next, %wide.trip.count
  br i1 %exitcond.not, label %._crit_edge, label %.lr.ph, !llvm.loop !10

._crit_edge:                                      ; preds = %.lr.ph, %5
  %.019.lcssa = phi i32 [ 0, %5 ], [ %.120, %.lr.ph ]
  %.018.lcssa = phi float [ %7, %5 ], [ %.1, %.lr.ph ]
  %17 = fsub float %.018.lcssa, %1
  %18 = tail call noundef float @llvm.fabs.f32(float %17)
  %19 = fsub float %2, %1
  %20 = tail call noundef float @llvm.fabs.f32(float %19)
  %21 = fcmp ogt float %18, %20
  %.2 = select i1 %21, i32 %4, i32 %.019.lcssa
  ret i32 %.2
}